; Function Attrs: mustprogress nounwind uwtable
define dso_local void @_ZN2EA4StdC8CallbackD2Ev(ptr noundef nonnull align 8 dereferenceable(80) %this) unnamed_addr #2 align 2 personality ptr @__gxx_personality_v0 {
invoke.cont:
  store ptr getelementptr inbounds ({ [4 x ptr] }, ptr @_ZTVN2EA4StdC8CallbackE, i64 0, i32 0, i64 2), ptr %this, align 8
  %mbStarted = getelementptr inbounds i8, ptr %this, i64 52
  %0 = load atomic i32, ptr %mbStarted seq_cst, align 4
  %tobool.not = icmp eq i32 %0, 0
  br i1 %tobool.not, label %if.end, label %if.then

if.then:                                          ; preds = %invoke.cont
  %1 = load atomic i32, ptr %mbStarted seq_cst, align 4
  %tobool.not.i = icmp eq i32 %1, 0
  br i1 %tobool.not.i, label %if.end, label %if.then.i

if.then.i:                                        ; preds = %if.then
  %mpCallbackManager.i = getelementptr inbounds i8, ptr %this, i64 24
  %2 = load ptr, ptr %mpCallbackManager.i, align 8
  %vtable.i = load ptr, ptr %2, align 8
  %vfn.i = getelementptr inbounds i8, ptr %vtable.i, i64 48
  %3 = load ptr, ptr %vfn.i, align 8
  %call2.i1 = invoke noundef zeroext i1 %3(ptr noundef nonnull align 8 dereferenceable(8) %2, ptr noundef nonnull %this)
          to label %call2.i.noexc unwind label %terminate.lpad

call2.i.noexc:                                    ; preds = %if.then.i
  store atomic i32 0, ptr %mbStarted seq_cst, align 4
  %mbEnableRefCount.i = getelementptr inbounds i8, ptr %this, i64 57
  %4 = load i8, ptr %mbEnableRefCount.i, align 1
  %5 = and i8 %4, 1
  %tobool5.not.i = icmp eq i8 %5, 0
  br i1 %tobool5.not.i, label %if.end, label %if.then6.i

if.then6.i:                                       ; preds = %call2.i.noexc
  %mpFunction.i.i.i = getelementptr inbounds i8, ptr %this, i64 32
  %6 = load ptr, ptr %mpFunction.i.i.i, align 8
  %tobool.not.i.i.i = icmp eq ptr %6, null
  br i1 %tobool.not.i.i.i, label %if.end, label %if.then.i.i.i

if.then.i.i.i:                                    ; preds = %if.then6.i
  %mpFunctionArg.i.i.i = getelementptr inbounds i8, ptr %this, i64 40
  %7 = load ptr, ptr %mpFunctionArg.i.i.i, align 8
  invoke void %6(ptr noundef nonnull %this, ptr noundef %7, i64 noundef 1, i64 noundef 0)
          to label %if.end unwind label %terminate.lpad

if.end:                                           ; preds = %if.then6.i, %call2.i.noexc, %if.then, %if.then.i.i.i, %invoke.cont
  ret void

terminate.lpad:                                   ; preds = %if.then.i.i.i, %if.then.i
  %8 = landingpad { ptr, i32 }
          catch ptr null
  %9 = extractvalue { ptr, i32 } %8, 0
  tail call void @__clang_call_terminate(ptr %9) #18
  unreachable
}